target datalayout = "e-m:e-p270:32:32-p271:32:32-p272:64:64-i64:64-i128:128-f80:128-n8:16:32:64-S128"
target triple = "x86_64-pc-linux-gnu"

%struct.H5T_t = type { %struct.H5O_shared_t, ptr, %struct.H5O_loc_t, %struct.H5G_name_t, ptr }
%struct.H5O_shared_t = type { i32, ptr, i32, %union.anon }
%union.anon = type { %struct.H5O_mesg_loc_t }
%struct.H5O_mesg_loc_t = type { i32, i64 }
%struct.H5O_loc_t = type { ptr, i64, i8 }
%struct.H5G_name_t = type { ptr, ptr, i32 }
%struct.H5T_shared_t = type { i64, i32, i32, i64, i32, i8, ptr, ptr, %union.anon.0 }
%union.anon.0 = type { %struct.H5T_array_t }
%struct.H5T_array_t = type { i64, i32, [32 x i64] }
%struct.H5T_atomic_t = type { i32, i64, i64, i32, i32, %union.anon.1 }
%union.anon.1 = type { %struct.anon.2 }
%struct.anon.2 = type { i64, i64, i64, i64, i64, i64, i32, i32 }
%struct.anon = type { i32 }
%struct.H5T_enum_t = type { i32, i32, i32, ptr, ptr }

@H5_libinit_g = external global i8, align 1
@H5_libterm_g = external global i8, align 1
@.str = private unnamed_addr constant [102 x i8] c"generated/home/dtcxzyw/WorkSpace/Projects/compilers/llvm-opt-benchmark/bench/hdf5/hdf5/src/H5Tfixed.c\00", align 1
@H5E_FUNC_g = external global i64, align 8
@H5E_CANTINIT_g = external global i64, align 8
@.str.1 = private unnamed_addr constant [30 x i8] c"library initialization failed\00", align 1
@H5E_CANTSET_g = external global i64, align 8
@.str.2 = private unnamed_addr constant [22 x i8] c"can't set API context\00", align 1
@H5E_ARGS_g = external global i64, align 8
@H5E_BADTYPE_g = external global i64, align 8
@.str.3 = private unnamed_addr constant [24 x i8] c"not an integer datatype\00", align 1
@H5E_DATATYPE_g = external global i64, align 8
@.str.4 = private unnamed_addr constant [41 x i8] c"operation not defined for datatype class\00", align 1
@__func__.H5Tset_sign = private unnamed_addr constant [12 x i8] c"H5Tset_sign\00", align 1
@.str.5 = private unnamed_addr constant [22 x i8] c"datatype is read-only\00", align 1
@H5E_BADVALUE_g = external global i64, align 8
@.str.6 = private unnamed_addr constant [18 x i8] c"illegal sign type\00", align 1
@.str.7 = private unnamed_addr constant [48 x i8] c"operation not allowed after members are defined\00", align 1

; Function Attrs: nounwind uwtable
define i32 @H5Tset_sign(i64 noundef %0, i32 noundef %1) #0 {
  %3 = alloca i64, align 8
  %4 = alloca i32, align 4
  %5 = alloca ptr, align 8
  %6 = alloca i32, align 4
  %7 = alloca i8, align 1
  %8 = alloca i8, align 1
  store i64 %0, ptr %3, align 8
  store i32 %1, ptr %4, align 4
  store ptr null, ptr %5, align 8
  store i32 0, ptr %6, align 4
  store i8 0, ptr %7, align 1
  store i8 0, ptr %8, align 1
  %9 = load i8, ptr @H5_libinit_g, align 1
  %10 = trunc i8 %9 to i1
  br i1 %10, label %15, label %11

11:                                               ; preds = %2
  %12 = load i8, ptr @H5_libterm_g, align 1
  %13 = trunc i8 %12 to i1
  %14 = xor i1 %13, true
  br label %15

15:                                               ; preds = %11, %2
  %16 = phi i1 [ false, %2 ], [ %14, %11 ]
  %17 = xor i1 %16, true
  %18 = xor i1 %17, true
  %19 = zext i1 %18 to i32
  %20 = sext i32 %19 to i64
  %21 = icmp ne i64 %20, 0
  br i1 %21, label %22, label %46

22:                                               ; preds = %15
  %23 = call i32 @H5_init_library()
  %24 = icmp slt i32 %23, 0
  %25 = xor i1 %24, true
  %26 = xor i1 %25, true
  %27 = zext i1 %26 to i32
  %28 = sext i32 %27 to i64
  %29 = icmp ne i64 %28, 0
  br i1 %29, label %30, label %45

30:                                               ; preds = %22
  br label %31

31:                                               ; preds = %30
  br label %32

32:                                               ; preds = %31
  br label %33

33:                                               ; preds = %32
  %34 = load i64, ptr @H5E_FUNC_g, align 8
  %35 = load i64, ptr @H5E_CANTINIT_g, align 8
  %36 = call i32 (ptr, ptr, i32, i64, i64, ptr, ...) @H5E_printf_stack(ptr noundef @.str, ptr noundef @__func__.H5Tset_sign, i32 noundef 105, i64 noundef %34, i64 noundef %35, ptr noundef @.str.1)
  br label %37

37:                                               ; preds = %33
  store i8 1, ptr %8, align 1
  %38 = load i8, ptr %8, align 1
  %39 = trunc i8 %38 to i1
  %40 = zext i1 %39 to i8
  store i8 %40, ptr %8, align 1
  br label %41

41:                                               ; preds = %37
  br label %42

42:                                               ; preds = %41
  store i32 -1, ptr %6, align 4
  br label %207

43:                                               ; No predecessors!
  br label %44

44:                                               ; preds = %43
  br label %45

45:                                               ; preds = %44, %22
  br label %46

46:                                               ; preds = %45, %15
  %47 = call i32 @H5CX_push()
  %48 = icmp slt i32 %47, 0
  %49 = xor i1 %48, true
  %50 = xor i1 %49, true
  %51 = zext i1 %50 to i32
  %52 = sext i32 %51 to i64
  %53 = icmp ne i64 %52, 0
  br i1 %53, label %54, label %69

54:                                               ; preds = %46
  br label %55

55:                                               ; preds = %54
  br label %56

56:                                               ; preds = %55
  br label %57

57:                                               ; preds = %56
  %58 = load i64, ptr @H5E_FUNC_g, align 8
  %59 = load i64, ptr @H5E_CANTSET_g, align 8
  %60 = call i32 (ptr, ptr, i32, i64, i64, ptr, ...) @H5E_printf_stack(ptr noundef @.str, ptr noundef @__func__.H5Tset_sign, i32 noundef 105, i64 noundef %58, i64 noundef %59, ptr noundef @.str.2)
  br label %61

61:                                               ; preds = %57
  store i8 1, ptr %8, align 1
  %62 = load i8, ptr %8, align 1
  %63 = trunc i8 %62 to i1
  %64 = zext i1 %63 to i8
  store i8 %64, ptr %8, align 1
  br label %65

65:                                               ; preds = %61
  br label %66

66:                                               ; preds = %65
  store i32 -1, ptr %6, align 4
  br label %207

67:                                               ; No predecessors!
  br label %68

68:                                               ; preds = %67
  br label %70

69:                                               ; preds = %46
  store i8 1, ptr %7, align 1
  br label %70

70:                                               ; preds = %69, %68
  %71 = call i32 @H5E_clear_stack()
  %72 = load i64, ptr %3, align 8
  %73 = call ptr @H5I_object_verify(i64 noundef %72, i32 noundef 3)
  store ptr %73, ptr %5, align 8
  %74 = icmp eq ptr null, %73
  br i1 %74, label %75, label %90

75:                                               ; preds = %70
  br label %76

76:                                               ; preds = %75
  br label %77

77:                                               ; preds = %76
  br label %78

78:                                               ; preds = %77
  %79 = load i64, ptr @H5E_ARGS_g, align 8
  %80 = load i64, ptr @H5E_BADTYPE_g, align 8
  %81 = call i32 (ptr, ptr, i32, i64, i64, ptr, ...) @H5E_printf_stack(ptr noundef @.str, ptr noundef @__func__.H5Tset_sign, i32 noundef 109, i64 noundef %79, i64 noundef %80, ptr noundef @.str.3)
  br label %82

82:                                               ; preds = %78
  store i8 1, ptr %8, align 1
  %83 = load i8, ptr %8, align 1
  %84 = trunc i8 %83 to i1
  %85 = zext i1 %84 to i8
  store i8 %85, ptr %8, align 1
  br label %86

86:                                               ; preds = %82
  br label %87

87:                                               ; preds = %86
  store i32 -1, ptr %6, align 4
  br label %207

88:                                               ; No predecessors!
  br label %89

89:                                               ; preds = %88
  br label %90

90:                                               ; preds = %89, %70
  %91 = load ptr, ptr %5, align 8
  %92 = getelementptr inbounds %struct.H5T_t, ptr %91, i32 0, i32 1
  %93 = load ptr, ptr %92, align 8
  %94 = getelementptr inbounds %struct.H5T_shared_t, ptr %93, i32 0, i32 1
  %95 = load i32, ptr %94, align 8
  %96 = icmp ne i32 0, %95
  br i1 %96, label %97, label %112

97:                                               ; preds = %90
  br label %98

98:                                               ; preds = %97
  br label %99

99:                                               ; preds = %98
  br label %100

100:                                              ; preds = %99
  %101 = load i64, ptr @H5E_ARGS_g, align 8
  %102 = load i64, ptr @H5E_CANTINIT_g, align 8
  %103 = call i32 (ptr, ptr, i32, i64, i64, ptr, ...) @H5E_printf_stack(ptr noundef @.str, ptr noundef @__func__.H5Tset_sign, i32 noundef 111, i64 noundef %101, i64 noundef %102, ptr noundef @.str.5)
  br label %104

104:                                              ; preds = %100
  store i8 1, ptr %8, align 1
  %105 = load i8, ptr %8, align 1
  %106 = trunc i8 %105 to i1
  %107 = zext i1 %106 to i8
  store i8 %107, ptr %8, align 1
  br label %108

108:                                              ; preds = %104
  br label %109

109:                                              ; preds = %108
  store i32 -1, ptr %6, align 4
  br label %207

110:                                              ; No predecessors!
  br label %111

111:                                              ; preds = %110
  br label %112

112:                                              ; preds = %111, %90
  %113 = load i32, ptr %4, align 4
  %114 = icmp slt i32 %113, 0
  br i1 %114, label %118, label %115

115:                                              ; preds = %112
  %116 = load i32, ptr %4, align 4
  %117 = icmp sge i32 %116, 2
  br i1 %117, label %118, label %133

118:                                              ; preds = %115, %112
  br label %119

119:                                              ; preds = %118
  br label %120

120:                                              ; preds = %119
  br label %121

121:                                              ; preds = %120
  %122 = load i64, ptr @H5E_ARGS_g, align 8
  %123 = load i64, ptr @H5E_BADVALUE_g, align 8
  %124 = call i32 (ptr, ptr, i32, i64, i64, ptr, ...) @H5E_printf_stack(ptr noundef @.str, ptr noundef @__func__.H5Tset_sign, i32 noundef 113, i64 noundef %122, i64 noundef %123, ptr noundef @.str.6)
  br label %125

125:                                              ; preds = %121
  store i8 1, ptr %8, align 1
  %126 = load i8, ptr %8, align 1
  %127 = trunc i8 %126 to i1
  %128 = zext i1 %127 to i8
  store i8 %128, ptr %8, align 1
  br label %129

129:                                              ; preds = %125
  br label %130

130:                                              ; preds = %129
  store i32 -1, ptr %6, align 4
  br label %207

131:                                              ; No predecessors!
  br label %132

132:                                              ; preds = %131
  br label %133

133:                                              ; preds = %132, %115
  %134 = load ptr, ptr %5, align 8
  %135 = getelementptr inbounds %struct.H5T_t, ptr %134, i32 0, i32 1
  %136 = load ptr, ptr %135, align 8
  %137 = getelementptr inbounds %struct.H5T_shared_t, ptr %136, i32 0, i32 2
  %138 = load i32, ptr %137, align 4
  %139 = icmp eq i32 8, %138
  br i1 %139, label %140, label %163

140:                                              ; preds = %133
  %141 = load ptr, ptr %5, align 8
  %142 = getelementptr inbounds %struct.H5T_t, ptr %141, i32 0, i32 1
  %143 = load ptr, ptr %142, align 8
  %144 = getelementptr inbounds %struct.H5T_shared_t, ptr %143, i32 0, i32 8
  %145 = getelementptr inbounds %struct.H5T_enum_t, ptr %144, i32 0, i32 1
  %146 = load i32, ptr %145, align 4
  %147 = icmp ugt i32 %146, 0
  br i1 %147, label %148, label %163

148:                                              ; preds = %140
  br label %149

149:                                              ; preds = %148
  br label %150

150:                                              ; preds = %149
  br label %151

151:                                              ; preds = %150
  %152 = load i64, ptr @H5E_DATATYPE_g, align 8
  %153 = load i64, ptr @H5E_CANTINIT_g, align 8
  %154 = call i32 (ptr, ptr, i32, i64, i64, ptr, ...) @H5E_printf_stack(ptr noundef @.str, ptr noundef @__func__.H5Tset_sign, i32 noundef 115, i64 noundef %152, i64 noundef %153, ptr noundef @.str.7)
  br label %155

155:                                              ; preds = %151
  store i8 1, ptr %8, align 1
  %156 = load i8, ptr %8, align 1
  %157 = trunc i8 %156 to i1
  %158 = zext i1 %157 to i8
  store i8 %158, ptr %8, align 1
  br label %159

159:                                              ; preds = %155
  br label %160

160:                                              ; preds = %159
  store i32 -1, ptr %6, align 4
  br label %207

161:                                              ; No predecessors!
  br label %162

162:                                              ; preds = %161
  br label %163

163:                                              ; preds = %162, %140, %133
  br label %164

164:                                              ; preds = %171, %163
  %165 = load ptr, ptr %5, align 8
  %166 = getelementptr inbounds %struct.H5T_t, ptr %165, i32 0, i32 1
  %167 = load ptr, ptr %166, align 8
  %168 = getelementptr inbounds %struct.H5T_shared_t, ptr %167, i32 0, i32 6
  %169 = load ptr, ptr %168, align 8
  %170 = icmp ne ptr %169, null
  br i1 %170, label %171, label %177

171:                                              ; preds = %164
  %172 = load ptr, ptr %5, align 8
  %173 = getelementptr inbounds %struct.H5T_t, ptr %172, i32 0, i32 1
  %174 = load ptr, ptr %173, align 8
  %175 = getelementptr inbounds %struct.H5T_shared_t, ptr %174, i32 0, i32 6
  %176 = load ptr, ptr %175, align 8
  store ptr %176, ptr %5, align 8
  br label %164

177:                                              ; preds = %164
  %178 = load ptr, ptr %5, align 8
  %179 = getelementptr inbounds %struct.H5T_t, ptr %178, i32 0, i32 1
  %180 = load ptr, ptr %179, align 8
  %181 = getelementptr inbounds %struct.H5T_shared_t, ptr %180, i32 0, i32 2
  %182 = load i32, ptr %181, align 4
  %183 = icmp ne i32 0, %182
  br i1 %183, label %184, label %199

184:                                              ; preds = %177
  br label %185

185:                                              ; preds = %184
  br label %186

186:                                              ; preds = %185
  br label %187

187:                                              ; preds = %186
  %188 = load i64, ptr @H5E_DATATYPE_g, align 8
  %189 = load i64, ptr @H5E_CANTINIT_g, align 8
  %190 = call i32 (ptr, ptr, i32, i64, i64, ptr, ...) @H5E_printf_stack(ptr noundef @.str, ptr noundef @__func__.H5Tset_sign, i32 noundef 119, i64 noundef %188, i64 noundef %189, ptr noundef @.str.4)
  br label %191

191:                                              ; preds = %187
  store i8 1, ptr %8, align 1
  %192 = load i8, ptr %8, align 1
  %193 = trunc i8 %192 to i1
  %194 = zext i1 %193 to i8
  store i8 %194, ptr %8, align 1
  br label %195

195:                                              ; preds = %191
  br label %196

196:                                              ; preds = %195
  store i32 -1, ptr %6, align 4
  br label %207

197:                                              ; No predecessors!
  br label %198

198:                                              ; preds = %197
  br label %199

199:                                              ; preds = %198, %177
  %200 = load i32, ptr %4, align 4
  %201 = load ptr, ptr %5, align 8
  %202 = getelementptr inbounds %struct.H5T_t, ptr %201, i32 0, i32 1
  %203 = load ptr, ptr %202, align 8
  %204 = getelementptr inbounds %struct.H5T_shared_t, ptr %203, i32 0, i32 8
  %205 = getelementptr inbounds %struct.H5T_atomic_t, ptr %204, i32 0, i32 5
  %206 = getelementptr inbounds %struct.anon, ptr %205, i32 0, i32 0
  store i32 %200, ptr %206, align 8
  br label %207

207:                                              ; preds = %199, %196, %160, %130, %109, %87, %66, %42
  %208 = load i8, ptr %7, align 1
  %209 = trunc i8 %208 to i1
  %210 = xor i1 %209, true
  %211 = xor i1 %210, true
  %212 = zext i1 %211 to i32
  %213 = sext i32 %212 to i64
  %214 = icmp ne i64 %213, 0
  br i1 %214, label %215, label %217

215:                                              ; preds = %207
  %216 = call i32 @H5CX_pop(i1 noundef zeroext true)
  store i8 0, ptr %7, align 1
  br label %217

217:                                              ; preds = %215, %207
  %218 = load i8, ptr %8, align 1
  %219 = trunc i8 %218 to i1
  %220 = xor i1 %219, true
  %221 = xor i1 %220, true
  %222 = zext i1 %221 to i32
  %223 = sext i32 %222 to i64
  %224 = icmp ne i64 %223, 0
  br i1 %224, label %225, label %227

225:                                              ; preds = %217
  %226 = call i32 @H5E_dump_api_stack()
  br label %227

227:                                              ; preds = %225, %217
  %228 = load i32, ptr %6, align 4
  ret i32 %228
}