; Function Attrs: nounwind uwtable
define range(i32 -1, 1) i32 @H5Tset_sign(i64 noundef %0, i32 noundef %1) local_unnamed_addr #0 {
  %3 = load i8, ptr @H5_libinit_g, align 1
  %4 = trunc i8 %3 to i1
  %5 = load i8, ptr @H5_libterm_g, align 1
  %6 = trunc i8 %5 to i1
  %7 = select i1 %4, i1 true, i1 %6
  br i1 %7, label %15, label %8

8:                                                ; preds = %2
  %9 = tail call i32 @H5_init_library() #2
  %10 = icmp slt i32 %9, 0
  br i1 %10, label %11, label %15

11:                                               ; preds = %8
  %12 = load i64, ptr @H5E_FUNC_g, align 8
  %13 = load i64, ptr @H5E_CANTINIT_g, align 8
  %14 = tail call i32 (ptr, ptr, i32, i64, i64, ptr, ...) @H5E_printf_stack(ptr noundef nonnull @.str, ptr noundef nonnull @__func__.H5Tset_sign, i32 noundef 105, i64 noundef %12, i64 noundef %13, ptr noundef nonnull @.str.1) #2
  br label %.thread38

15:                                               ; preds = %8, %2
  %16 = tail call i32 @H5CX_push() #2
  %17 = icmp slt i32 %16, 0
  br i1 %17, label %18, label %22

18:                                               ; preds = %15
  %19 = load i64, ptr @H5E_FUNC_g, align 8
  %20 = load i64, ptr @H5E_CANTSET_g, align 8
  %21 = tail call i32 (ptr, ptr, i32, i64, i64, ptr, ...) @H5E_printf_stack(ptr noundef nonnull @.str, ptr noundef nonnull @__func__.H5Tset_sign, i32 noundef 105, i64 noundef %19, i64 noundef %20, ptr noundef nonnull @.str.2) #2
  br label %.thread38

22:                                               ; preds = %15
  %23 = tail call i32 @H5E_clear_stack() #2
  %24 = tail call ptr @H5I_object_verify(i64 noundef %0, i32 noundef 3) #2
  %25 = icmp eq ptr %24, null
  br i1 %25, label %26, label %30

26:                                               ; preds = %22
  %27 = load i64, ptr @H5E_ARGS_g, align 8
  %28 = load i64, ptr @H5E_BADTYPE_g, align 8
  %29 = tail call i32 (ptr, ptr, i32, i64, i64, ptr, ...) @H5E_printf_stack(ptr noundef nonnull @.str, ptr noundef nonnull @__func__.H5Tset_sign, i32 noundef 109, i64 noundef %27, i64 noundef %28, ptr noundef nonnull @.str.3) #2
  br label %.thread44

30:                                               ; preds = %22
  %31 = getelementptr inbounds i8, ptr %24, i64 40
  %32 = load ptr, ptr %31, align 8
  %33 = getelementptr inbounds i8, ptr %32, i64 8
  %34 = load i32, ptr %33, align 8
  %.not = icmp eq i32 %34, 0
  br i1 %.not, label %39, label %35

35:                                               ; preds = %30
  %36 = load i64, ptr @H5E_ARGS_g, align 8
  %37 = load i64, ptr @H5E_CANTINIT_g, align 8
  %38 = tail call i32 (ptr, ptr, i32, i64, i64, ptr, ...) @H5E_printf_stack(ptr noundef nonnull @.str, ptr noundef nonnull @__func__.H5Tset_sign, i32 noundef 111, i64 noundef %36, i64 noundef %37, ptr noundef nonnull @.str.5) #2
  br label %.thread44

39:                                               ; preds = %30
  %or.cond = icmp ugt i32 %1, 1
  br i1 %or.cond, label %40, label %44

40:                                               ; preds = %39
  %41 = load i64, ptr @H5E_ARGS_g, align 8
  %42 = load i64, ptr @H5E_BADVALUE_g, align 8
  %43 = tail call i32 (ptr, ptr, i32, i64, i64, ptr, ...) @H5E_printf_stack(ptr noundef nonnull @.str, ptr noundef nonnull @__func__.H5Tset_sign, i32 noundef 113, i64 noundef %41, i64 noundef %42, ptr noundef nonnull @.str.6) #2
  br label %.thread44

44:                                               ; preds = %39
  %45 = getelementptr inbounds i8, ptr %32, i64 12
  %46 = load i32, ptr %45, align 4
  %47 = icmp eq i32 %46, 8
  br i1 %47, label %48, label %.preheader

.preheader:                                       ; preds = %48, %44
  br label %55

48:                                               ; preds = %44
  %49 = getelementptr inbounds i8, ptr %32, i64 52
  %50 = load i32, ptr %49, align 4
  %.not27 = icmp eq i32 %50, 0
  br i1 %.not27, label %.preheader, label %51

51:                                               ; preds = %48
  %52 = load i64, ptr @H5E_DATATYPE_g, align 8
  %53 = load i64, ptr @H5E_CANTINIT_g, align 8
  %54 = tail call i32 (ptr, ptr, i32, i64, i64, ptr, ...) @H5E_printf_stack(ptr noundef nonnull @.str, ptr noundef nonnull @__func__.H5Tset_sign, i32 noundef 115, i64 noundef %52, i64 noundef %53, ptr noundef nonnull @.str.7) #2
  br label %.thread44

55:                                               ; preds = %.preheader, %55
  %.023 = phi ptr [ %59, %55 ], [ %24, %.preheader ]
  %56 = getelementptr inbounds i8, ptr %.023, i64 40
  %57 = load ptr, ptr %56, align 8
  %58 = getelementptr inbounds i8, ptr %57, i64 32
  %59 = load ptr, ptr %58, align 8
  %.not28 = icmp eq ptr %59, null
  br i1 %.not28, label %60, label %55

60:                                               ; preds = %55
  %61 = getelementptr inbounds i8, ptr %57, i64 12
  %62 = load i32, ptr %61, align 4
  %.not29 = icmp eq i32 %62, 0
  br i1 %.not29, label %68, label %63

63:                                               ; preds = %60
  %64 = load i64, ptr @H5E_DATATYPE_g, align 8
  %65 = load i64, ptr @H5E_CANTINIT_g, align 8
  %66 = tail call i32 (ptr, ptr, i32, i64, i64, ptr, ...) @H5E_printf_stack(ptr noundef nonnull @.str, ptr noundef nonnull @__func__.H5Tset_sign, i32 noundef 119, i64 noundef %64, i64 noundef %65, ptr noundef nonnull @.str.4) #2
  br label %.thread44

.thread44:                                        ; preds = %63, %51, %40, %35, %26
  %67 = tail call i32 @H5CX_pop(i1 noundef zeroext true) #2
  br label %.thread38

68:                                               ; preds = %60
  %69 = getelementptr inbounds i8, ptr %57, i64 80
  store i32 %1, ptr %69, align 8
  %70 = tail call i32 @H5CX_pop(i1 noundef zeroext true) #2
  br label %72

.thread38:                                        ; preds = %18, %11, %.thread44
  %71 = tail call i32 @H5E_dump_api_stack() #2
  br label %72

72:                                               ; preds = %68, %.thread38
  %.0223341 = phi i32 [ -1, %.thread38 ], [ 0, %68 ]
  ret i32 %.0223341
}